; Function Attrs: nounwind uwtable
define dso_local void @ReorderBufferForget(ptr noundef captures(none) %0, i32 noundef %1, i64 noundef %2) local_unnamed_addr #0 {
  %4 = alloca i32, align 4
  %5 = alloca i8, align 1
  call void @llvm.lifetime.start.p0(i64 4, ptr nonnull %4)
  store i32 %1, ptr %4, align 4
  call void @llvm.lifetime.start.p0(i64 1, ptr nonnull %5) #19
  %6 = getelementptr inbounds nuw i8, ptr %0, i64 64
  %7 = load i32, ptr %6, align 8
  %.not.i = icmp ne i32 %7, 0
  %8 = icmp eq i32 %7, %1
  %or.cond.i = and i1 %.not.i, %8
  br i1 %or.cond.i, label %9, label %12

9:                                                ; preds = %3
  %10 = getelementptr inbounds nuw i8, ptr %0, i64 72
  %11 = load ptr, ptr %10, align 8
  %.not34.i = icmp eq ptr %11, null
  call void @llvm.lifetime.end.p0(i64 1, ptr nonnull %5) #19
  call void @llvm.lifetime.end.p0(i64 4, ptr nonnull %4)
  br i1 %.not34.i, label %ReorderBufferTXNByXid.exit.thread, label %ReorderBufferTXNByXid.exit.thread15

12:                                               ; preds = %3
  %13 = load ptr, ptr %0, align 8
  %14 = call ptr @hash_search(ptr noundef %13, ptr noundef nonnull %4, i32 noundef 0, ptr noundef nonnull %5) #19
  %15 = load i8, ptr %5, align 1, !range !6, !noundef !7
  %16 = trunc nuw i8 %15 to i1
  br i1 %16, label %ReorderBufferTXNByXid.exit, label %ReorderBufferTXNByXid.exit.thread18

ReorderBufferTXNByXid.exit.thread18:              ; preds = %12
  %17 = load i32, ptr %4, align 4
  store i32 %17, ptr %6, align 8
  %18 = getelementptr inbounds nuw i8, ptr %0, i64 72
  store ptr null, ptr %18, align 8
  call void @llvm.lifetime.end.p0(i64 1, ptr nonnull %5) #19
  call void @llvm.lifetime.end.p0(i64 4, ptr nonnull %4)
  br label %ReorderBufferTXNByXid.exit.thread

ReorderBufferTXNByXid.exit:                       ; preds = %12
  %19 = getelementptr inbounds nuw i8, ptr %14, i64 8
  %20 = load ptr, ptr %19, align 8
  %21 = load i32, ptr %4, align 4
  store i32 %21, ptr %6, align 8
  %22 = getelementptr inbounds nuw i8, ptr %0, i64 72
  store ptr %20, ptr %22, align 8
  call void @llvm.lifetime.end.p0(i64 1, ptr nonnull %5) #19
  call void @llvm.lifetime.end.p0(i64 4, ptr nonnull %4)
  %23 = icmp eq ptr %20, null
  br i1 %23, label %ReorderBufferTXNByXid.exit.thread, label %ReorderBufferTXNByXid.exit.thread15

ReorderBufferTXNByXid.exit.thread15:              ; preds = %9, %ReorderBufferTXNByXid.exit
  %.0.i17 = phi ptr [ %20, %ReorderBufferTXNByXid.exit ], [ %11, %9 ]
  %24 = getelementptr inbounds nuw i8, ptr %.0.i17, i64 32
  store i64 %2, ptr %24, align 8
  %25 = getelementptr inbounds nuw i8, ptr %.0.i17, i64 88
  %26 = load ptr, ptr %25, align 8
  %.not = icmp eq ptr %26, null
  br i1 %.not, label %ReorderBufferImmediateInvalidation.exit, label %27

27:                                               ; preds = %ReorderBufferTXNByXid.exit.thread15
  %28 = getelementptr inbounds nuw i8, ptr %.0.i17, i64 228
  %29 = load i32, ptr %28, align 4
  %.not12 = icmp eq i32 %29, 0
  br i1 %.not12, label %ReorderBufferImmediateInvalidation.exit, label %30

30:                                               ; preds = %27
  %31 = getelementptr inbounds nuw i8, ptr %.0.i17, i64 232
  %32 = load ptr, ptr %31, align 8
  %33 = call zeroext i1 @IsTransactionOrTransactionBlock() #19
  br i1 %33, label %34, label %.lr.ph.i.preheader

34:                                               ; preds = %30
  call void @BeginInternalSubTransaction(ptr noundef nonnull @.str.7) #19
  call void @AbortCurrentTransaction() #19
  br label %.lr.ph.i.preheader

.lr.ph.i.preheader:                               ; preds = %34, %30
  br label %.lr.ph.i

.lr.ph.i:                                         ; preds = %.lr.ph.i.preheader, %.lr.ph.i
  %.07.i = phi i32 [ %37, %.lr.ph.i ], [ 0, %.lr.ph.i.preheader ]
  %35 = sext i32 %.07.i to i64
  %36 = getelementptr inbounds %union.SharedInvalidationMessage, ptr %32, i64 %35
  call void @LocalExecuteInvalidationMessage(ptr noundef %36) #19
  %37 = add nuw i32 %.07.i, 1
  %exitcond.not.i = icmp eq i32 %37, %29
  br i1 %exitcond.not.i, label %._crit_edge.i, label %.lr.ph.i, !llvm.loop !15

._crit_edge.i:                                    ; preds = %.lr.ph.i
  br i1 %33, label %38, label %ReorderBufferImmediateInvalidation.exit

38:                                               ; preds = %._crit_edge.i
  call void @RollbackAndReleaseCurrentSubTransaction() #19
  br label %ReorderBufferImmediateInvalidation.exit

ReorderBufferImmediateInvalidation.exit:          ; preds = %38, %._crit_edge.i, %ReorderBufferTXNByXid.exit.thread15, %27
  call fastcc void @ReorderBufferCleanupTXN(ptr noundef %0, ptr noundef nonnull %.0.i17)
  br label %ReorderBufferTXNByXid.exit.thread

ReorderBufferTXNByXid.exit.thread:                ; preds = %9, %ReorderBufferTXNByXid.exit.thread18, %ReorderBufferTXNByXid.exit, %ReorderBufferImmediateInvalidation.exit
  ret void
}